; Function Attrs: mustprogress uwtable
define hidden noundef i32 @_ZN6Assimp11XGLImporter17ReadIndexFromTextERN4pugi8xml_nodeE(ptr nocapture nonnull readnone align 8 %this, ptr noundef nonnull align 8 dereferenceable(8) %node) local_unnamed_addr #6 align 2 personality ptr @__gxx_personality_v0 {
entry:
  %ref.tmp.i3 = alloca ptr, align 8
  %ref.tmp.i = alloca ptr, align 8
  %v = alloca %"class.std::__cxx11::basic_string", align 8
  call void @_ZNSt7__cxx1112basic_stringIcSt11char_traitsIcESaIcEEC1Ev(ptr noundef nonnull align 8 dereferenceable(32) %v) #24
  %call = invoke noundef zeroext i1 @_ZN6Assimp10TXmlParserIN4pugi8xml_nodeEE16getValueAsStringERS2_RNSt7__cxx1112basic_stringIcSt11char_traitsIcESaIcEEE(ptr noundef nonnull align 8 dereferenceable(8) %node, ptr noundef nonnull align 8 dereferenceable(32) %v)
          to label %invoke.cont unwind label %lpad

invoke.cont:                                      ; preds = %entry
  %call2 = call noundef ptr @_ZNKSt7__cxx1112basic_stringIcSt11char_traitsIcESaIcEE5c_strEv(ptr noundef nonnull align 8 dereferenceable(32) %v) #24
  br label %while.cond.i.i

while.cond.i.i:                                   ; preds = %while.body.i.i, %invoke.cont
  %in.addr.0.i.i = phi ptr [ %call2, %invoke.cont ], [ %incdec.ptr.i.i, %while.body.i.i ]
  %0 = load i8, ptr %in.addr.0.i.i, align 1
  switch i8 %0, label %if.end [
    i8 32, label %while.body.i.i
    i8 9, label %while.body.i.i
    i8 13, label %if.then
    i8 10, label %if.then
    i8 0, label %if.then
    i8 12, label %if.then
  ]

while.body.i.i:                                   ; preds = %while.cond.i.i, %while.cond.i.i
  %incdec.ptr.i.i = getelementptr inbounds i8, ptr %in.addr.0.i.i, i64 1
  br label %while.cond.i.i, !llvm.loop !50

if.then:                                          ; preds = %while.cond.i.i, %while.cond.i.i, %while.cond.i.i, %while.cond.i.i
  call void @llvm.lifetime.start.p0(i64 8, ptr nonnull %ref.tmp.i)
  %call.i1 = invoke noundef zeroext i1 @_ZN6Assimp13DefaultLogger12isNullLoggerEv()
          to label %call.i.noexc unwind label %lpad

call.i.noexc:                                     ; preds = %if.then
  br i1 %call.i1, label %_ZN6Assimp12LogFunctionsINS_11XGLImporterEE8LogErrorIJRA46_KcEEEvDpOT_.exit, label %if.then.i

if.then.i:                                        ; preds = %call.i.noexc
  %call1.i2 = invoke noundef ptr @_ZN6Assimp13DefaultLogger3getEv()
          to label %call1.i.noexc unwind label %lpad

call1.i.noexc:                                    ; preds = %if.then.i
  store ptr @.str, ptr %ref.tmp.i, align 8
  invoke void @_ZN6Assimp6Logger5errorIJPKcRA46_S2_EEEvDpOT_(ptr noundef nonnull align 8 dereferenceable(12) %call1.i2, ptr noundef nonnull align 8 dereferenceable(8) %ref.tmp.i, ptr noundef nonnull align 1 dereferenceable(46) @.str.77)
          to label %_ZN6Assimp12LogFunctionsINS_11XGLImporterEE8LogErrorIJRA46_KcEEEvDpOT_.exit unwind label %lpad

_ZN6Assimp12LogFunctionsINS_11XGLImporterEE8LogErrorIJRA46_KcEEEvDpOT_.exit: ; preds = %call1.i.noexc, %call.i.noexc
  call void @llvm.lifetime.end.p0(i64 8, ptr nonnull %ref.tmp.i)
  br label %cleanup

lpad:                                             ; preds = %call1.i.noexc8, %if.then.i4, %if.then8, %call1.i.noexc, %if.then.i, %if.then, %entry
  %1 = landingpad { ptr, i32 }
          cleanup
  call void @_ZNSt7__cxx1112basic_stringIcSt11char_traitsIcESaIcEED1Ev(ptr noundef nonnull align 8 dereferenceable(32) %v) #24
  resume { ptr, i32 } %1

if.end:                                           ; preds = %while.cond.i.i
  %2 = add i8 %0, -58
  %or.cond7.i = icmp ult i8 %2, -10
  br i1 %or.cond7.i, label %if.then8, label %if.end.i

if.end.i:                                         ; preds = %if.end, %if.end.i
  %3 = phi i8 [ %4, %if.end.i ], [ %0, %if.end ]
  %value.09.i = phi i32 [ %add.i, %if.end.i ], [ 0, %if.end ]
  %in.addr.08.i = phi ptr [ %incdec.ptr.i, %if.end.i ], [ %in.addr.0.i.i, %if.end ]
  %mul.i = mul i32 %value.09.i, 10
  %narrow.i = add nsw i8 %3, -48
  %sub.i = zext nneg i8 %narrow.i to i32
  %add.i = add i32 %mul.i, %sub.i
  %incdec.ptr.i = getelementptr inbounds i8, ptr %in.addr.08.i, i64 1
  %4 = load i8, ptr %incdec.ptr.i, align 1
  %5 = add i8 %4, -58
  %or.cond.i = icmp ult i8 %5, -10
  br i1 %or.cond.i, label %cleanup, label %if.end.i, !llvm.loop !99

if.then8:                                         ; preds = %if.end
  call void @llvm.lifetime.start.p0(i64 8, ptr nonnull %ref.tmp.i3)
  %call.i7 = invoke noundef zeroext i1 @_ZN6Assimp13DefaultLogger12isNullLoggerEv()
          to label %call.i.noexc6 unwind label %lpad

call.i.noexc6:                                    ; preds = %if.then8
  br i1 %call.i7, label %_ZN6Assimp12LogFunctionsINS_11XGLImporterEE8LogErrorIJRA21_KcEEEvDpOT_.exit, label %if.then.i4

if.then.i4:                                       ; preds = %call.i.noexc6
  %call1.i9 = invoke noundef ptr @_ZN6Assimp13DefaultLogger3getEv()
          to label %call1.i.noexc8 unwind label %lpad

call1.i.noexc8:                                   ; preds = %if.then.i4
  store ptr @.str, ptr %ref.tmp.i3, align 8
  invoke void @_ZN6Assimp6Logger5errorIJPKcRA21_S2_EEEvDpOT_(ptr noundef nonnull align 8 dereferenceable(12) %call1.i9, ptr noundef nonnull align 8 dereferenceable(8) %ref.tmp.i3, ptr noundef nonnull align 1 dereferenceable(21) @.str.79)
          to label %_ZN6Assimp12LogFunctionsINS_11XGLImporterEE8LogErrorIJRA21_KcEEEvDpOT_.exit unwind label %lpad

_ZN6Assimp12LogFunctionsINS_11XGLImporterEE8LogErrorIJRA21_KcEEEvDpOT_.exit: ; preds = %call1.i.noexc8, %call.i.noexc6
  call void @llvm.lifetime.end.p0(i64 8, ptr nonnull %ref.tmp.i3)
  br label %cleanup

cleanup:                                          ; preds = %if.end.i, %_ZN6Assimp12LogFunctionsINS_11XGLImporterEE8LogErrorIJRA21_KcEEEvDpOT_.exit, %_ZN6Assimp12LogFunctionsINS_11XGLImporterEE8LogErrorIJRA46_KcEEEvDpOT_.exit
  %retval.0 = phi i32 [ -1, %_ZN6Assimp12LogFunctionsINS_11XGLImporterEE8LogErrorIJRA46_KcEEEvDpOT_.exit ], [ -1, %_ZN6Assimp12LogFunctionsINS_11XGLImporterEE8LogErrorIJRA21_KcEEEvDpOT_.exit ], [ %add.i, %if.end.i ]
  call void @_ZNSt7__cxx1112basic_stringIcSt11char_traitsIcESaIcEED1Ev(ptr noundef nonnull align 8 dereferenceable(32) %v) #24
  ret i32 %retval.0
}